target datalayout = "e-m:e-p270:32:32-p271:32:32-p272:64:64-i64:64-i128:128-f80:128-n8:16:32:64-S128"
target triple = "x86_64-pc-linux-gnu"

; Function Attrs: mustprogress nounwind uwtable
define hidden noundef i32 @_ZN14JfrOSInterface18JfrOSInterfaceImpl19network_utilizationEPP16NetworkInterface(ptr noundef nonnull align 8 dereferenceable(32) %0, ptr noundef %1) #1 align 2 {
  %3 = alloca ptr, align 8
  %4 = alloca ptr, align 8
  %5 = alloca ptr, align 8
  store ptr %0, ptr %3, align 8
  store ptr %1, ptr %4, align 8
  %6 = load ptr, ptr %3, align 8
  %7 = call noundef ptr @_ZN14JfrOSInterface18JfrOSInterfaceImpl29network_performance_interfaceEv(ptr noundef nonnull align 8 dereferenceable(32) %6)
  store ptr %7, ptr %5, align 8
  %8 = load ptr, ptr %5, align 8
  %9 = icmp eq ptr %8, null
  br i1 %9, label %10, label %11

10:                                               ; preds = %2
  br label %15

11:                                               ; preds = %2
  %12 = load ptr, ptr %5, align 8
  %13 = load ptr, ptr %4, align 8
  %14 = call noundef i32 @_ZNK27NetworkPerformanceInterface19network_utilizationEPP16NetworkInterface(ptr noundef nonnull align 8 dereferenceable(8) %12, ptr noundef %13)
  br label %15

15:                                               ; preds = %11, %10
  %16 = phi i32 [ -1, %10 ], [ %14, %11 ]
  ret i32 %16
}