; Function Attrs: mustprogress nounwind uwtable
define hidden noundef i32 @_ZN14JfrOSInterface18JfrOSInterfaceImpl19network_utilizationEPP16NetworkInterface(ptr nocapture noundef nonnull align 8 dereferenceable(32) %0, ptr noundef %1) local_unnamed_addr #1 align 2 {
  %3 = tail call noundef ptr @_ZN14JfrOSInterface18JfrOSInterfaceImpl29network_performance_interfaceEv(ptr noundef nonnull align 8 dereferenceable(32) %0)
  %4 = icmp eq ptr %3, null
  br i1 %4, label %7, label %5

5:                                                ; preds = %2
  %6 = tail call noundef i32 @_ZNK27NetworkPerformanceInterface19network_utilizationEPP16NetworkInterface(ptr noundef nonnull align 8 dereferenceable(8) %3, ptr noundef %1) #14
  br label %7

7:                                                ; preds = %2, %5
  %8 = phi i32 [ %6, %5 ], [ -1, %2 ]
  ret i32 %8
}